target datalayout = "e-m:e-p270:32:32-p271:32:32-p272:64:64-i64:64-i128:128-f80:128-n8:16:32:64-S128"
target triple = "x86_64-pc-linux-gnu"

%struct._object = type { %union.anon, ptr }
%union.anon = type { i64 }
%struct.PyVarObject = type { %struct._object, i64 }
%struct.Py_buffer = type { ptr, ptr, i64, i64, i32, i32, ptr, ptr, ptr, ptr, ptr }
%struct.anon = type { i32, i32 }

; Function Attrs: alwaysinline nounwind uwtable
define internal i32 @_Py_IsImmortal(ptr noundef %0) #4 {
  %2 = alloca ptr, align 8
  store ptr %0, ptr %2, align 8, !tbaa !3
  %3 = load ptr, ptr %2, align 8, !tbaa !3
  %4 = getelementptr inbounds nuw %struct._object, ptr %3, i32 0, i32 0
  %5 = getelementptr inbounds nuw %struct.anon, ptr %4, i32 0, i32 0
  %6 = load i32, ptr %5, align 8, !tbaa !32
  %7 = icmp slt i32 %6, 0
  %8 = zext i1 %7 to i32
  ret i32 %8
}

; Function Attrs: inlinehint nounwind uwtable
define internal i64 @Py_SIZE(ptr noundef %0) #2 {
  %2 = alloca ptr, align 8
  store ptr %0, ptr %2, align 8, !tbaa !3
  %3 = load ptr, ptr %2, align 8, !tbaa !3
  %4 = getelementptr inbounds nuw %struct.PyVarObject, ptr %3, i32 0, i32 1
  %5 = load i64, ptr %4, align 8, !tbaa !69
  ret i64 %5
}

; Function Attrs: inlinehint nounwind uwtable
define internal void @Py_XDECREF(ptr noundef %0) #2 {
  %2 = alloca ptr, align 8
  store ptr %0, ptr %2, align 8, !tbaa !3
  %3 = load ptr, ptr %2, align 8, !tbaa !3
  %4 = icmp ne ptr %3, null
  br i1 %4, label %5, label %7

5:                                                ; preds = %1
  %6 = load ptr, ptr %2, align 8, !tbaa !3
  call void @Py_DECREF(ptr noundef %6)
  br label %7

7:                                                ; preds = %5, %1
  ret void
}

; Function Attrs: nounwind uwtable
define internal ptr @unpack_from_impl(ptr noundef %0, ptr noundef %1, ptr noundef %2, i64 noundef %3) #0 {
  %5 = alloca ptr, align 8
  %6 = alloca ptr, align 8
  %7 = alloca ptr, align 8
  %8 = alloca i64, align 8
  store ptr %0, ptr %5, align 8, !tbaa !3
  store ptr %1, ptr %6, align 8, !tbaa !8
  store ptr %2, ptr %7, align 8, !tbaa !8
  store i64 %3, ptr %8, align 8, !tbaa !18
  %9 = load ptr, ptr %6, align 8, !tbaa !8
  %10 = load ptr, ptr %7, align 8, !tbaa !8
  %11 = load i64, ptr %8, align 8, !tbaa !18
  %12 = call ptr @Struct_unpack_from_impl(ptr noundef %9, ptr noundef %10, i64 noundef %11)
  ret ptr %12
}

; Function Attrs: alwaysinline nounwind uwtable
define internal void @Py_DECREF(ptr noundef %0) #4 {
  %2 = alloca ptr, align 8
  store ptr %0, ptr %2, align 8, !tbaa !3
  %3 = load ptr, ptr %2, align 8, !tbaa !3
  %4 = call i32 @_Py_IsImmortal(ptr noundef %3)
  %5 = icmp ne i32 %4, 0
  br i1 %5, label %6, label %7

6:                                                ; preds = %1
  br label %16

7:                                                ; preds = %1
  %8 = load ptr, ptr %2, align 8, !tbaa !3
  %9 = getelementptr inbounds nuw %struct._object, ptr %8, i32 0, i32 0
  %10 = getelementptr inbounds nuw %struct.anon, ptr %9, i32 0, i32 0
  %11 = load i32, ptr %10, align 8, !tbaa !32
  %12 = add i32 %11, -1
  store i32 %12, ptr %10, align 8, !tbaa !32
  %13 = icmp eq i32 %12, 0
  br i1 %13, label %14, label %16

14:                                               ; preds = %7
  %15 = load ptr, ptr %2, align 8, !tbaa !3
  call void @_Py_Dealloc(ptr noundef %15)
  br label %16

16:                                               ; preds = %6, %14, %7
  ret void
}

; Function Attrs: inlinehint nounwind uwtable
define internal i64 @PyTuple_GET_SIZE(ptr noundef %0) #2 {
  %2 = alloca ptr, align 8
  %3 = alloca ptr, align 8
  store ptr %0, ptr %2, align 8, !tbaa !3
  call void @llvm.lifetime.start.p0(i64 8, ptr %3) #8
  %4 = load ptr, ptr %2, align 8, !tbaa !3
  store ptr %4, ptr %3, align 8, !tbaa !8
  %5 = load ptr, ptr %3, align 8, !tbaa !8
  %6 = call i64 @Py_SIZE(ptr noundef %5)
  call void @llvm.lifetime.end.p0(i64 8, ptr %3) #8
  ret i64 %6
}

; Function Attrs: nounwind uwtable
define internal ptr @unpack_from(ptr noundef %0, ptr noundef %1, i64 noundef %2, ptr noundef %3) #0 {
  %5 = alloca ptr, align 8
  %6 = alloca ptr, align 8
  %7 = alloca ptr, align 8
  %8 = alloca i64, align 8
  %9 = alloca ptr, align 8
  %10 = alloca ptr, align 8
  %11 = alloca [3 x ptr], align 16
  %12 = alloca i64, align 8
  %13 = alloca ptr, align 8
  %14 = alloca %struct.Py_buffer, align 8
  %15 = alloca i64, align 8
  %16 = alloca i64, align 8
  %17 = alloca ptr, align 8
  %18 = alloca i32, align 4
  store ptr %0, ptr %6, align 8, !tbaa !3
  store ptr %1, ptr %7, align 8, !tbaa !16
  store i64 %2, ptr %8, align 8, !tbaa !18
  store ptr %3, ptr %9, align 8, !tbaa !3
  call void @llvm.lifetime.start.p0(i64 8, ptr %10) #8
  store ptr null, ptr %10, align 8, !tbaa !3
  call void @llvm.lifetime.start.p0(i64 24, ptr %11) #8
  call void @llvm.lifetime.start.p0(i64 8, ptr %12) #8
  %19 = load i64, ptr %8, align 8, !tbaa !18
  %20 = load ptr, ptr %9, align 8, !tbaa !3
  %21 = icmp ne ptr %20, null
  br i1 %21, label %22, label %25

22:                                               ; preds = %4
  %23 = load ptr, ptr %9, align 8, !tbaa !3
  %24 = call i64 @PyTuple_GET_SIZE(ptr noundef %23)
  br label %26

25:                                               ; preds = %4
  br label %26

26:                                               ; preds = %25, %22
  %27 = phi i64 [ %24, %22 ], [ 0, %25 ]
  %28 = add i64 %19, %27
  %29 = sub i64 %28, 2
  store i64 %29, ptr %12, align 8, !tbaa !18
  call void @llvm.lifetime.start.p0(i64 8, ptr %13) #8
  store ptr null, ptr %13, align 8, !tbaa !8
  call void @llvm.lifetime.start.p0(i64 80, ptr %14) #8
  call void @llvm.memset.p0.i64(ptr align 8 %14, i8 0, i64 80, i1 false)
  call void @llvm.lifetime.start.p0(i64 8, ptr %15) #8
  store i64 0, ptr %15, align 8, !tbaa !18
  %30 = load ptr, ptr %9, align 8, !tbaa !3
  %31 = icmp eq ptr %30, null
  br i1 %31, label %32, label %43

32:                                               ; preds = %26
  %33 = load i64, ptr %8, align 8, !tbaa !18
  %34 = icmp sle i64 2, %33
  br i1 %34, label %35, label %43

35:                                               ; preds = %32
  %36 = load i64, ptr %8, align 8, !tbaa !18
  %37 = icmp sle i64 %36, 3
  br i1 %37, label %38, label %43

38:                                               ; preds = %35
  %39 = load ptr, ptr %7, align 8, !tbaa !16
  %40 = icmp ne ptr %39, null
  br i1 %40, label %41, label %43

41:                                               ; preds = %38
  %42 = load ptr, ptr %7, align 8, !tbaa !16
  br label %49

43:                                               ; preds = %38, %35, %32, %26
  %44 = load ptr, ptr %7, align 8, !tbaa !16
  %45 = load i64, ptr %8, align 8, !tbaa !18
  %46 = load ptr, ptr %9, align 8, !tbaa !3
  %47 = getelementptr inbounds [3 x ptr], ptr %11, i64 0, i64 0
  %48 = call ptr @_PyArg_UnpackKeywords(ptr noundef %44, i64 noundef %45, ptr noundef null, ptr noundef %46, ptr noundef @unpack_from._parser, i32 noundef 2, i32 noundef 3, i32 noundef 0, i32 noundef 0, ptr noundef %47)
  br label %49

49:                                               ; preds = %43, %41
  %50 = phi ptr [ %42, %41 ], [ %48, %43 ]
  store ptr %50, ptr %7, align 8, !tbaa !16
  %51 = load ptr, ptr %7, align 8, !tbaa !16
  %52 = icmp ne ptr %51, null
  br i1 %52, label %54, label %53

53:                                               ; preds = %49
  br label %101

54:                                               ; preds = %49
  %55 = load ptr, ptr %6, align 8, !tbaa !3
  %56 = load ptr, ptr %7, align 8, !tbaa !16
  %57 = getelementptr ptr, ptr %56, i64 0
  %58 = load ptr, ptr %57, align 8, !tbaa !3
  %59 = call i32 @cache_struct_converter(ptr noundef %55, ptr noundef %58, ptr noundef %13)
  %60 = icmp ne i32 %59, 0
  br i1 %60, label %62, label %61

61:                                               ; preds = %54
  br label %101

62:                                               ; preds = %54
  %63 = load ptr, ptr %7, align 8, !tbaa !16
  %64 = getelementptr ptr, ptr %63, i64 1
  %65 = load ptr, ptr %64, align 8, !tbaa !3
  %66 = call i32 @PyObject_GetBuffer(ptr noundef %65, ptr noundef %14, i32 noundef 0)
  %67 = icmp ne i32 %66, 0
  br i1 %67, label %68, label %69

68:                                               ; preds = %62
  br label %101

69:                                               ; preds = %62
  %70 = load i64, ptr %12, align 8, !tbaa !18
  %71 = icmp ne i64 %70, 0
  br i1 %71, label %73, label %72

72:                                               ; preds = %69
  br label %96

73:                                               ; preds = %69
  call void @llvm.lifetime.start.p0(i64 8, ptr %16) #8
  store i64 -1, ptr %16, align 8, !tbaa !18
  call void @llvm.lifetime.start.p0(i64 8, ptr %17) #8
  %74 = load ptr, ptr %7, align 8, !tbaa !16
  %75 = getelementptr ptr, ptr %74, i64 2
  %76 = load ptr, ptr %75, align 8, !tbaa !3
  %77 = call ptr @_PyNumber_Index(ptr noundef %76)
  store ptr %77, ptr %17, align 8, !tbaa !3
  %78 = load ptr, ptr %17, align 8, !tbaa !3
  %79 = icmp ne ptr %78, null
  br i1 %79, label %80, label %84

80:                                               ; preds = %73
  %81 = load ptr, ptr %17, align 8, !tbaa !3
  %82 = call i64 @PyLong_AsSsize_t(ptr noundef %81)
  store i64 %82, ptr %16, align 8, !tbaa !18
  %83 = load ptr, ptr %17, align 8, !tbaa !3
  call void @Py_DECREF(ptr noundef %83)
  br label %84

84:                                               ; preds = %80, %73
  %85 = load i64, ptr %16, align 8, !tbaa !18
  %86 = icmp eq i64 %85, -1
  br i1 %86, label %87, label %91

87:                                               ; preds = %84
  %88 = call ptr @PyErr_Occurred()
  %89 = icmp ne ptr %88, null
  br i1 %89, label %90, label %91

90:                                               ; preds = %87
  store i32 2, ptr %18, align 4
  br label %93

91:                                               ; preds = %87, %84
  %92 = load i64, ptr %16, align 8, !tbaa !18
  store i64 %92, ptr %15, align 8, !tbaa !18
  store i32 0, ptr %18, align 4
  br label %93

93:                                               ; preds = %90, %91
  call void @llvm.lifetime.end.p0(i64 8, ptr %17) #8
  call void @llvm.lifetime.end.p0(i64 8, ptr %16) #8
  %94 = load i32, ptr %18, align 4
  switch i32 %94, label %109 [
    i32 0, label %95
    i32 2, label %101
  ]

95:                                               ; preds = %93
  br label %96

96:                                               ; preds = %95, %72
  %97 = load ptr, ptr %6, align 8, !tbaa !3
  %98 = load ptr, ptr %13, align 8, !tbaa !8
  %99 = load i64, ptr %15, align 8, !tbaa !18
  %100 = call ptr @unpack_from_impl(ptr noundef %97, ptr noundef %98, ptr noundef %14, i64 noundef %99)
  store ptr %100, ptr %10, align 8, !tbaa !3
  br label %101

101:                                              ; preds = %96, %93, %68, %61, %53
  %102 = load ptr, ptr %13, align 8, !tbaa !8
  call void @Py_XDECREF(ptr noundef %102)
  %103 = getelementptr inbounds nuw %struct.Py_buffer, ptr %14, i32 0, i32 1
  %104 = load ptr, ptr %103, align 8, !tbaa !20
  %105 = icmp ne ptr %104, null
  br i1 %105, label %106, label %107

106:                                              ; preds = %101
  call void @PyBuffer_Release(ptr noundef %14)
  br label %107

107:                                              ; preds = %106, %101
  %108 = load ptr, ptr %10, align 8, !tbaa !3
  store ptr %108, ptr %5, align 8
  store i32 1, ptr %18, align 4
  br label %109

109:                                              ; preds = %107, %93
  call void @llvm.lifetime.end.p0(i64 8, ptr %15) #8
  call void @llvm.lifetime.end.p0(i64 80, ptr %14) #8
  call void @llvm.lifetime.end.p0(i64 8, ptr %13) #8
  call void @llvm.lifetime.end.p0(i64 8, ptr %12) #8
  call void @llvm.lifetime.end.p0(i64 24, ptr %11) #8
  call void @llvm.lifetime.end.p0(i64 8, ptr %10) #8
  %110 = load ptr, ptr %5, align 8
  ret ptr %110
}