; Function Attrs: nounwind uwtable
define internal ptr @unpack_from(ptr noundef readonly captures(none) %0, ptr noundef %1, i64 noundef %2, ptr noundef %3) #0 {
  %5 = alloca [3 x ptr], align 16
  %6 = alloca ptr, align 8
  %7 = alloca %struct.Py_buffer, align 8
  call void @llvm.lifetime.start.p0(i64 24, ptr nonnull %5) #7
  %.not = icmp eq ptr %3, null
  br i1 %.not, label %10, label %8

8:                                                ; preds = %4
  %9 = getelementptr i8, ptr %3, i64 16
  %.val = load i64, ptr %9, align 8, !tbaa !32
  br label %10

10:                                               ; preds = %4, %8
  %11 = phi i64 [ %.val, %8 ], [ 0, %4 ]
  %12 = add i64 %11, %2
  call void @llvm.lifetime.start.p0(i64 8, ptr nonnull %6) #7
  store ptr null, ptr %6, align 8, !tbaa !19
  call void @llvm.lifetime.start.p0(i64 80, ptr nonnull %7) #7
  call void @llvm.memset.p0.i64(ptr noundef nonnull align 8 dereferenceable(80) %7, i8 0, i64 80, i1 false)
  %13 = and i64 %2, -2
  %14 = icmp eq i64 %13, 2
  %15 = icmp ne ptr %1, null
  %16 = and i1 %15, %14
  %or.cond5 = and i1 %.not, %16
  br i1 %or.cond5, label %.thread, label %17

17:                                               ; preds = %10
  %18 = call ptr @_PyArg_UnpackKeywords(ptr noundef %1, i64 noundef %2, ptr noundef null, ptr noundef %3, ptr noundef nonnull @unpack_from._parser, i32 noundef 2, i32 noundef 3, i32 noundef 0, i32 noundef 0, ptr noundef nonnull %5) #7
  %.not39 = icmp eq ptr %18, null
  br i1 %.not39, label %thread-pre-split, label %.thread

.thread:                                          ; preds = %10, %17
  %19 = phi ptr [ %18, %17 ], [ %1, %10 ]
  %20 = load ptr, ptr %19, align 8, !tbaa !17
  %21 = getelementptr i8, ptr %0, i64 32
  %.val47 = load ptr, ptr %21, align 8, !tbaa !3
  %22 = call fastcc i32 @cache_struct_converter(ptr %.val47, ptr noundef %20, ptr noundef %6)
  %.not40 = icmp eq i32 %22, 0
  br i1 %.not40, label %thread-pre-split, label %23

23:                                               ; preds = %.thread
  %24 = getelementptr i8, ptr %19, i64 8
  %25 = load ptr, ptr %24, align 8, !tbaa !17
  %26 = call i32 @PyObject_GetBuffer(ptr noundef %25, ptr noundef nonnull %7, i32 noundef 0) #7
  %.not41 = icmp eq i32 %26, 0
  br i1 %.not41, label %27, label %thread-pre-split

27:                                               ; preds = %23
  %.not42 = icmp eq i64 %12, 2
  br i1 %.not42, label %.thread53, label %28

28:                                               ; preds = %27
  %29 = getelementptr i8, ptr %19, i64 16
  %30 = load ptr, ptr %29, align 8, !tbaa !17
  %31 = call ptr @_PyNumber_Index(ptr noundef %30) #7
  %.not43 = icmp eq ptr %31, null
  br i1 %.not43, label %Py_DECREF.exit.thread, label %32

32:                                               ; preds = %28
  %33 = call i64 @PyLong_AsSsize_t(ptr noundef nonnull %31) #7
  %34 = load i32, ptr %31, align 8, !tbaa !18
  %.not.i = icmp sgt i32 %34, -1
  br i1 %.not.i, label %35, label %Py_DECREF.exit

35:                                               ; preds = %32
  %36 = add nsw i32 %34, -1
  store i32 %36, ptr %31, align 8, !tbaa !18
  %37 = icmp eq i32 %36, 0
  br i1 %37, label %38, label %Py_DECREF.exit

38:                                               ; preds = %35
  call void @_Py_Dealloc(ptr noundef nonnull %31) #7
  br label %Py_DECREF.exit

Py_DECREF.exit:                                   ; preds = %38, %35, %32
  %39 = icmp eq i64 %33, -1
  br i1 %39, label %Py_DECREF.exit.thread, label %.thread53

Py_DECREF.exit.thread:                            ; preds = %28, %Py_DECREF.exit
  %40 = call ptr @PyErr_Occurred() #7
  %.not44 = icmp eq ptr %40, null
  br i1 %.not44, label %.thread53, label %thread-pre-split

.thread53:                                        ; preds = %Py_DECREF.exit.thread, %Py_DECREF.exit, %27
  %.033 = phi i64 [ 0, %27 ], [ %33, %Py_DECREF.exit ], [ -1, %Py_DECREF.exit.thread ]
  %41 = load ptr, ptr %6, align 8, !tbaa !19
  %42 = call fastcc ptr @Struct_unpack_from_impl(ptr noundef readonly %41, ptr noundef nonnull readonly %7, i64 noundef %.033)
  br label %43

thread-pre-split:                                 ; preds = %17, %.thread, %23, %Py_DECREF.exit.thread
  %.pr = load ptr, ptr %6, align 8, !tbaa !19
  br label %43

43:                                               ; preds = %thread-pre-split, %.thread53
  %44 = phi ptr [ %.pr, %thread-pre-split ], [ %41, %.thread53 ]
  %.034 = phi ptr [ null, %thread-pre-split ], [ %42, %.thread53 ]
  %.not.i48 = icmp eq ptr %44, null
  br i1 %.not.i48, label %Py_XDECREF.exit, label %45

45:                                               ; preds = %43
  %46 = load i32, ptr %44, align 8, !tbaa !18
  %.not.i.i = icmp sgt i32 %46, -1
  br i1 %.not.i.i, label %47, label %Py_XDECREF.exit

47:                                               ; preds = %45
  %48 = add nsw i32 %46, -1
  store i32 %48, ptr %44, align 8, !tbaa !18
  %49 = icmp eq i32 %48, 0
  br i1 %49, label %50, label %Py_XDECREF.exit

50:                                               ; preds = %47
  call void @_Py_Dealloc(ptr noundef nonnull %44) #7
  br label %Py_XDECREF.exit

Py_XDECREF.exit:                                  ; preds = %43, %45, %47, %50
  %51 = getelementptr inbounds nuw i8, ptr %7, i64 8
  %52 = load ptr, ptr %51, align 8, !tbaa !31
  %.not45 = icmp eq ptr %52, null
  br i1 %.not45, label %54, label %53

53:                                               ; preds = %Py_XDECREF.exit
  call void @PyBuffer_Release(ptr noundef nonnull %7) #7
  br label %54

54:                                               ; preds = %Py_XDECREF.exit, %53
  call void @llvm.lifetime.end.p0(i64 80, ptr nonnull %7) #7
  call void @llvm.lifetime.end.p0(i64 8, ptr nonnull %6) #7
  call void @llvm.lifetime.end.p0(i64 24, ptr nonnull %5) #7
  ret ptr %.034
}